target datalayout = "e-m:e-p270:32:32-p271:32:32-p272:64:64-i64:64-i128:128-f80:128-n8:16:32:64-S128"
target triple = "x86_64-pc-linux-gnu"

%struct._lv_global_t = type { i8, i8, %struct.lv_ll_t, ptr, ptr, %struct.lv_ll_t, i8, i32, i32, ptr, %struct.lv_ll_t, ptr, %struct.lv_ll_t, ptr, ptr, i32, ptr, i8, i32, i32, ptr, i32, %struct.lv_timer_state_t, %struct.lv_anim_state_t, %struct.lv_tick_state_t, %struct._lv_draw_buf_handlers_t, %struct._lv_draw_buf_handlers_t, %struct._lv_draw_buf_handlers_t, %struct.lv_ll_t, ptr, ptr, %struct.lv_draw_global_info_t, [4 x %struct.lv_draw_sw_mask_radius_circle_dsc_t], ptr, ptr, ptr, %struct.lv_tlsf_state_t, %struct.lv_ll_t, ptr, ptr, %struct.lv_style_t, i64, ptr, i32, ptr }
%struct.lv_timer_state_t = type { %struct.lv_ll_t, i8, i8, i8, i8, i32, i8, i32, i32, i32, i32, ptr, ptr }
%struct.lv_anim_state_t = type { i8, i8, ptr, %struct.lv_ll_t }
%struct.lv_tick_state_t = type { i32, i8, ptr, ptr }
%struct._lv_draw_buf_handlers_t = type { ptr, ptr, ptr, ptr, ptr, ptr }
%struct.lv_draw_global_info_t = type { ptr, i32, i32, i32, i32, i8 }
%struct.lv_draw_sw_mask_radius_circle_dsc_t = type { ptr, ptr, ptr, ptr, i32, i32, i32 }
%struct.lv_tlsf_state_t = type { ptr, i64, i64, %struct.lv_ll_t }
%struct.lv_ll_t = type { i32, ptr, ptr }
%struct.lv_style_t = type { ptr, i32, i8 }

@lv_global = external global %struct._lv_global_t, align 8

; Function Attrs: nounwind uwtable
define zeroext i16 @lv_anim_count_running() #0 {
  %1 = alloca i16, align 2
  %2 = alloca ptr, align 8
  call void @llvm.lifetime.start.p0(i64 2, ptr %1) #4
  store i16 0, ptr %1, align 2, !tbaa !50
  call void @llvm.lifetime.start.p0(i64 8, ptr %2) #4
  %3 = call ptr @lv_ll_get_head(ptr noundef getelementptr inbounds nuw (%struct.lv_anim_state_t, ptr getelementptr inbounds nuw (%struct._lv_global_t, ptr @lv_global, i32 0, i32 23), i32 0, i32 3))
  store ptr %3, ptr %2, align 8, !tbaa !21
  br label %4

4:                                                ; preds = %10, %0
  %5 = load ptr, ptr %2, align 8, !tbaa !21
  %6 = icmp ne ptr %5, null
  br i1 %6, label %7, label %13

7:                                                ; preds = %4
  %8 = load i16, ptr %1, align 2, !tbaa !50
  %9 = add i16 %8, 1
  store i16 %9, ptr %1, align 2, !tbaa !50
  br label %10

10:                                               ; preds = %7
  %11 = load ptr, ptr %2, align 8, !tbaa !21
  %12 = call ptr @lv_ll_get_next(ptr noundef getelementptr inbounds nuw (%struct.lv_anim_state_t, ptr getelementptr inbounds nuw (%struct._lv_global_t, ptr @lv_global, i32 0, i32 23), i32 0, i32 3), ptr noundef %11)
  store ptr %12, ptr %2, align 8, !tbaa !21
  br label %4, !llvm.loop !52

13:                                               ; preds = %4
  %14 = load i16, ptr %1, align 2, !tbaa !50
  call void @llvm.lifetime.end.p0(i64 8, ptr %2) #4
  call void @llvm.lifetime.end.p0(i64 2, ptr %1) #4
  ret i16 %14
}