; Function Attrs: nounwind uwtable
define zeroext i16 @lv_anim_count_running() local_unnamed_addr #0 {
  %1 = tail call ptr @lv_ll_get_head(ptr noundef nonnull getelementptr inbounds nuw (i8, ptr @lv_global, i64 304)) #8
  %.not4 = icmp eq ptr %1, null
  br i1 %.not4, label %._crit_edge, label %.lr.ph

.lr.ph:                                           ; preds = %0, %.lr.ph
  %.06 = phi ptr [ %3, %.lr.ph ], [ %1, %0 ]
  %.035 = phi i16 [ %2, %.lr.ph ], [ 0, %0 ]
  %2 = add i16 %.035, 1
  %3 = tail call ptr @lv_ll_get_next(ptr noundef nonnull getelementptr inbounds nuw (i8, ptr @lv_global, i64 304), ptr noundef nonnull %.06) #8
  %.not = icmp eq ptr %3, null
  br i1 %.not, label %._crit_edge, label %.lr.ph, !llvm.loop !47

._crit_edge:                                      ; preds = %.lr.ph, %0
  %.03.lcssa = phi i16 [ 0, %0 ], [ %2, %.lr.ph ]
  ret i16 %.03.lcssa
}